; Function Attrs: nounwind uwtable
define range(i32 -1, 1) i32 @H5AC_flush(ptr noundef %0) local_unnamed_addr #4 {
  %2 = load i8, ptr @H5AC_init_g, align 1, !tbaa !3, !range !7, !noundef !8
  %3 = trunc nuw i8 %2 to i1
  %4 = load i8, ptr @H5_libterm_g, align 1, !range !7
  %5 = trunc nuw i8 %4 to i1
  %6 = select i1 %3, i1 true, i1 %5
  br i1 %6, label %7, label %.thread, !prof !9

.thread:                                          ; preds = %1
  store i8 1, ptr @H5AC_init_g, align 1, !tbaa !3
  br label %10

7:                                                ; preds = %1
  %8 = xor i1 %5, true
  %9 = select i1 %3, i1 true, i1 %8
  br i1 %9, label %10, label %34, !prof !41

10:                                               ; preds = %.thread, %7
  %11 = tail call i32 @H5C_flush_cache(ptr noundef %0, i32 noundef 0) #8
  %12 = icmp slt i32 %11, 0
  br i1 %12, label %13, label %17

13:                                               ; preds = %10
  %14 = load i64, ptr @H5E_CACHE_g, align 8, !tbaa !42
  %15 = load i64, ptr @H5E_CANTFLUSH_g, align 8, !tbaa !42
  %16 = tail call i32 (ptr, ptr, i32, i64, i64, ptr, ...) @H5E_printf_stack(ptr noundef nonnull @.str, ptr noundef nonnull @__func__.H5AC_flush, i32 noundef 646, i64 noundef %14, i64 noundef %15, ptr noundef nonnull @.str.13) #8
  br label %17

17:                                               ; preds = %10, %13
  %.0 = phi i32 [ -1, %13 ], [ 0, %10 ]
  %18 = getelementptr inbounds nuw i8, ptr %0, i64 16
  %19 = load ptr, ptr %18, align 8, !tbaa !11
  %20 = getelementptr inbounds nuw i8, ptr %19, i64 112
  %21 = load ptr, ptr %20, align 8, !tbaa !20
  %22 = getelementptr inbounds nuw i8, ptr %21, i64 8
  %23 = load ptr, ptr %22, align 8, !tbaa !52
  %24 = getelementptr inbounds nuw i8, ptr %23, i64 1
  %25 = load i8, ptr %24, align 1, !tbaa !60, !range !7, !noundef !8
  %26 = trunc nuw i8 %25 to i1
  br i1 %26, label %27, label %34

27:                                               ; preds = %17
  %28 = tail call i32 @H5C_log_write_flush_cache_msg(ptr noundef nonnull %21, i32 noundef %.0) #8
  %29 = icmp slt i32 %28, 0
  br i1 %29, label %30, label %34

30:                                               ; preds = %27
  %31 = load i64, ptr @H5E_CACHE_g, align 8, !tbaa !42
  %32 = load i64, ptr @H5E_LOGGING_g, align 8, !tbaa !42
  %33 = tail call i32 (ptr, ptr, i32, i64, i64, ptr, ...) @H5E_printf_stack(ptr noundef nonnull @.str, ptr noundef nonnull @__func__.H5AC_flush, i32 noundef 652, i64 noundef %31, i64 noundef %32, ptr noundef nonnull @.str.7) #8
  br label %34

34:                                               ; preds = %17, %30, %27, %7
  %.1 = phi i32 [ -1, %30 ], [ %.0, %27 ], [ %.0, %17 ], [ 0, %7 ]
  ret i32 %.1
}